target datalayout = "e-m:e-p270:32:32-p271:32:32-p272:64:64-i64:64-i128:128-f80:128-n8:16:32:64-S128"
target triple = "x86_64-pc-linux-gnu"

@.str.1691 = private unnamed_addr constant [15 x i8] c"CAMEL Commands\00", align 1
@.str.1692 = private unnamed_addr constant [13 x i8] c"Unknown (%d)\00", align 1

; Function Attrs: null_pointer_is_valid sspstrong uwtable
define internal void @camelstat_init(ptr noundef %0, ptr noundef %1) #0 {
  %3 = alloca ptr, align 8
  %4 = alloca ptr, align 8
  %5 = alloca ptr, align 8
  %6 = alloca ptr, align 8
  %7 = alloca i32, align 4
  store ptr %0, ptr %3, align 8
  store ptr %1, ptr %4, align 8
  call void @llvm.lifetime.start.p0(i64 8, ptr %5) #11
  call void @llvm.lifetime.start.p0(i64 8, ptr %6) #11
  call void @llvm.lifetime.start.p0(i64 4, ptr %7) #11
  %8 = load ptr, ptr %4, align 8
  %9 = call ptr @init_srt_table(ptr noundef @.str.1691, ptr noundef null, ptr noundef %8, i32 noundef 10, ptr noundef null, ptr noundef null, ptr noundef null)
  store ptr %9, ptr %5, align 8
  store i32 0, ptr %7, align 4
  br label %10

10:                                               ; preds = %20, %2
  %11 = load i32, ptr %7, align 4
  %12 = icmp ult i32 %11, 10
  br i1 %12, label %13, label %23

13:                                               ; preds = %10
  %14 = load i32, ptr %7, align 4
  %15 = call ptr @val_to_str_wmem(ptr noundef null, i32 noundef %14, ptr noundef @camelSRTtype_naming, ptr noundef @.str.1692)
  store ptr %15, ptr %6, align 8
  %16 = load ptr, ptr %5, align 8
  %17 = load i32, ptr %7, align 4
  %18 = load ptr, ptr %6, align 8
  call void @init_srt_table_row(ptr noundef %16, i32 noundef %17, ptr noundef %18)
  %19 = load ptr, ptr %6, align 8
  call void @wmem_free(ptr noundef null, ptr noundef %19)
  br label %20

20:                                               ; preds = %13
  %21 = load i32, ptr %7, align 4
  %22 = add i32 %21, 1
  store i32 %22, ptr %7, align 4
  br label %10, !llvm.loop !12

23:                                               ; preds = %10
  call void @llvm.lifetime.end.p0(i64 4, ptr %7) #11
  call void @llvm.lifetime.end.p0(i64 8, ptr %6) #11
  call void @llvm.lifetime.end.p0(i64 8, ptr %5) #11
  ret void
}