; Function Attrs: null_pointer_is_valid sspstrong uwtable
define internal void @camelstat_init(ptr readnone captures(none) %0, ptr noundef %1) #0 {
  %3 = tail call ptr @init_srt_table(ptr noundef nonnull @.str.1691, ptr noundef null, ptr noundef %1, i32 noundef 10, ptr noundef null, ptr noundef null, ptr noundef null)
  br label %4

4:                                                ; preds = %2, %4
  %.07 = phi i32 [ 0, %2 ], [ %6, %4 ]
  %5 = tail call ptr @val_to_str_wmem(ptr noundef null, i32 noundef %.07, ptr noundef nonnull @camelSRTtype_naming, ptr noundef nonnull @.str.1692)
  tail call void @init_srt_table_row(ptr noundef %3, i32 noundef %.07, ptr noundef %5)
  tail call void @wmem_free(ptr noundef null, ptr noundef %5)
  %6 = add nuw nsw i32 %.07, 1
  %exitcond.not = icmp eq i32 %6, 10
  br i1 %exitcond.not, label %7, label %4, !llvm.loop !12

7:                                                ; preds = %4
  ret void
}